; Function Attrs: nounwind uwtable
define internal range(i32 -1, 34) i32 @attlist2(ptr noundef writeonly captures(none) %0, i32 noundef %1, ptr noundef %2, ptr noundef %3, ptr noundef %4) #1 {
  switch i32 %1, label %21 [
    i32 15, label %22
    i32 18, label %.preheader
    i32 23, label %20
  ]

.preheader:                                       ; preds = %5
  %6 = getelementptr inbounds nuw i8, ptr %4, i64 40
  br label %7

7:                                                ; preds = %.preheader, %12
  %indvars.iv = phi i64 [ 0, %.preheader ], [ %indvars.iv.next, %12 ]
  %8 = load ptr, ptr %6, align 8, !tbaa !10
  %9 = getelementptr inbounds nuw [8 x ptr], ptr @attlist2.types, i64 0, i64 %indvars.iv
  %10 = load ptr, ptr %9, align 8, !tbaa !14
  %11 = tail call i32 %8(ptr noundef %4, ptr noundef %2, ptr noundef %3, ptr noundef %10) #5
  %.not = icmp eq i32 %11, 0
  br i1 %.not, label %12, label %13

12:                                               ; preds = %7
  %indvars.iv.next = add nuw nsw i64 %indvars.iv, 1
  %exitcond.not = icmp eq i64 %indvars.iv.next, 8
  br i1 %exitcond.not, label %16, label %7, !llvm.loop !16

13:                                               ; preds = %7
  %14 = trunc nuw nsw i64 %indvars.iv to i32
  store ptr @attlist8, ptr %0, align 8, !tbaa !4
  %15 = add nuw nsw i32 %14, 23
  br label %22

16:                                               ; preds = %12
  %17 = load ptr, ptr %6, align 8, !tbaa !10
  %18 = tail call i32 %17(ptr noundef nonnull %4, ptr noundef %2, ptr noundef %3, ptr noundef nonnull @KW_NOTATION) #5
  %.not21 = icmp eq i32 %18, 0
  br i1 %.not21, label %21, label %19

19:                                               ; preds = %16
  store ptr @attlist5, ptr %0, align 8, !tbaa !4
  br label %22

20:                                               ; preds = %5
  store ptr @attlist3, ptr %0, align 8, !tbaa !4
  br label %22

21:                                               ; preds = %16, %5
  store ptr @error, ptr %0, align 8, !tbaa !4
  br label %22

22:                                               ; preds = %13, %5, %21, %20, %19
  %.020 = phi i32 [ -1, %21 ], [ 33, %20 ], [ %15, %13 ], [ 33, %19 ], [ 33, %5 ]
  ret i32 %.020
}